target datalayout = "e-m:e-p270:32:32-p271:32:32-p272:64:64-i64:64-i128:128-f80:128-n8:16:32:64-S128"
target triple = "x86_64-pc-linux-gnu"

%struct.__va_list_tag = type { i32, i32, ptr, ptr }

; Function Attrs: nounwind uwtable
define dso_local i32 @ap_php_snprintf(ptr noundef %0, i64 noundef %1, ptr noundef %2, ...) #0 {
  %4 = alloca ptr, align 8
  %5 = alloca i64, align 8
  %6 = alloca ptr, align 8
  %7 = alloca i64, align 8
  %8 = alloca [1 x %struct.__va_list_tag], align 16
  store ptr %0, ptr %4, align 8, !tbaa !13
  store i64 %1, ptr %5, align 8, !tbaa !4
  store ptr %2, ptr %6, align 8, !tbaa !13
  call void @llvm.lifetime.start.p0(i64 8, ptr %7) #15
  call void @llvm.lifetime.start.p0(i64 24, ptr %8) #15
  %9 = getelementptr inbounds [1 x %struct.__va_list_tag], ptr %8, i64 0, i64 0
  call void @llvm.va_start.p0(ptr %9)
  %10 = load ptr, ptr %4, align 8, !tbaa !13
  %11 = load i64, ptr %5, align 8, !tbaa !4
  %12 = load ptr, ptr %6, align 8, !tbaa !13
  %13 = getelementptr inbounds [1 x %struct.__va_list_tag], ptr %8, i64 0, i64 0
  %14 = call i64 @strx_printv(ptr noundef %10, i64 noundef %11, ptr noundef %12, ptr noundef %13)
  store i64 %14, ptr %7, align 8, !tbaa !4
  %15 = getelementptr inbounds [1 x %struct.__va_list_tag], ptr %8, i64 0, i64 0
  call void @llvm.va_end.p0(ptr %15)
  %16 = load i64, ptr %7, align 8, !tbaa !4
  %17 = trunc i64 %16 to i32
  call void @llvm.lifetime.end.p0(i64 24, ptr %8) #15
  call void @llvm.lifetime.end.p0(i64 8, ptr %7) #15
  ret i32 %17
}