; Function Attrs: nounwind uwtable
define dso_local i32 @ap_php_snprintf(ptr noundef captures(address) %0, i64 noundef %1, ptr noundef %2, ...) local_unnamed_addr #2 {
  %4 = alloca [1 x %struct.__va_list_tag], align 16
  call void @llvm.lifetime.start.p0(i64 24, ptr nonnull %4) #17
  call void @llvm.va_start.p0(ptr nonnull %4)
  %5 = call fastcc i64 @strx_printv(ptr noundef %0, i64 noundef %1, ptr noundef %2, ptr noundef nonnull %4)
  call void @llvm.va_end.p0(ptr nonnull %4)
  %6 = trunc i64 %5 to i32
  call void @llvm.lifetime.end.p0(i64 24, ptr nonnull %4) #17
  ret i32 %6
}